; Function Attrs: mustprogress uwtable
define void @_ZNK6casadi6MXNode10get_assertERKNS_2MXERKNSt7__cxx1112basic_stringIcSt11char_traitsIcESaIcEEE(ptr dead_on_unwind noalias writable sret(%"class.casadi::MX") align 8 %0, ptr noundef nonnull align 8 dereferenceable(64) %1, ptr noundef nonnull align 8 dereferenceable(8) %2, ptr noundef nonnull align 8 dereferenceable(32) %3) local_unnamed_addr #3 align 2 personality ptr @__gxx_personality_v0 {
  %5 = alloca %"class.casadi::MX", align 8
  %6 = tail call noalias noundef nonnull dereferenceable(96) ptr @_Znwm(i64 noundef 96) #35
  invoke void @_ZNK6casadi20SharedObjectInternal16shared_from_thisINS_2MXEEEKT_v(ptr dead_on_unwind nonnull writable sret(%"class.casadi::MX") align 8 %5, ptr noundef nonnull align 8 dereferenceable(24) %1)
          to label %7 unwind label %.thread

7:                                                ; preds = %4
  invoke void @_ZN6casadi9AssertionC1ERKNS_2MXES3_RKNSt7__cxx1112basic_stringIcSt11char_traitsIcESaIcEEE(ptr noundef nonnull align 8 dereferenceable(96) %6, ptr noundef nonnull align 8 dereferenceable(8) %5, ptr noundef nonnull align 8 dereferenceable(8) %2, ptr noundef nonnull align 8 dereferenceable(32) %3)
          to label %9 unwind label %.thread12

.thread12:                                        ; preds = %7
  %8 = landingpad { ptr, i32 }
          cleanup
  call void @_ZN6casadi2MXD1Ev(ptr noundef nonnull align 8 dereferenceable(8) %5) #31
  br label %14

9:                                                ; preds = %7
  invoke void @_ZN6casadi2MX6createEPNS_6MXNodeE(ptr dead_on_unwind writable sret(%"class.casadi::MX") align 8 %0, ptr noundef nonnull %6)
          to label %10 unwind label %12

10:                                               ; preds = %9
  call void @_ZN6casadi2MXD1Ev(ptr noundef nonnull align 8 dereferenceable(8) %5) #31
  ret void

.thread:                                          ; preds = %4
  %11 = landingpad { ptr, i32 }
          cleanup
  br label %14

12:                                               ; preds = %9
  %13 = landingpad { ptr, i32 }
          cleanup
  call void @_ZN6casadi2MXD1Ev(ptr noundef nonnull align 8 dereferenceable(8) %5) #31
  br label %15

14:                                               ; preds = %.thread12, %.thread
  %.pn11 = phi { ptr, i32 } [ %11, %.thread ], [ %8, %.thread12 ]
  call void @_ZdlPv(ptr noundef nonnull %6) #32
  br label %15

15:                                               ; preds = %12, %14
  %.pn10 = phi { ptr, i32 } [ %13, %12 ], [ %.pn11, %14 ]
  resume { ptr, i32 } %.pn10
}